; Function Attrs: mustprogress uwtable
define noundef nonnull align 8 dereferenceable(16) ptr @_ZN2cv4gapi2ov8PyParams20cfgOutputModelLayoutESt3mapINSt7__cxx1112basic_stringIcSt11char_traitsIcESaIcEEES9_St4lessIS9_ESaISt4pairIKS9_S9_EEE(ptr noundef nonnull readonly returned align 8 dereferenceable(16) %0, ptr noundef %1) local_unnamed_addr #3 align 2 personality ptr @__gxx_personality_v0 {
  %3 = alloca %"class.std::map", align 8
  %4 = load ptr, ptr %0, align 8, !tbaa !6
  %5 = getelementptr inbounds nuw i8, ptr %3, i64 8
  %6 = getelementptr inbounds nuw i8, ptr %1, i64 16
  %7 = load ptr, ptr %6, align 8, !tbaa !42
  %.not.i.i.i.i = icmp eq ptr %7, null
  br i1 %.not.i.i.i.i, label %19, label %8

8:                                                ; preds = %2
  %9 = getelementptr inbounds nuw i8, ptr %1, i64 8
  %10 = load i32, ptr %9, align 8, !tbaa !47
  %11 = getelementptr inbounds nuw i8, ptr %3, i64 16
  store ptr %7, ptr %11, align 8, !tbaa !42
  %12 = getelementptr inbounds nuw i8, ptr %1, i64 24
  %13 = load ptr, ptr %12, align 8, !tbaa !48
  %14 = getelementptr inbounds nuw i8, ptr %1, i64 32
  %15 = load ptr, ptr %14, align 8, !tbaa !49
  %16 = getelementptr inbounds nuw i8, ptr %7, i64 8
  store ptr %5, ptr %16, align 8, !tbaa !50
  %17 = getelementptr inbounds nuw i8, ptr %1, i64 40
  %18 = load i64, ptr %17, align 8, !tbaa !51
  store ptr null, ptr %6, align 8, !tbaa !42
  store ptr %9, ptr %12, align 8, !tbaa !48
  store ptr %9, ptr %14, align 8, !tbaa !49
  store i64 0, ptr %17, align 8, !tbaa !51
  br label %_ZNSt3mapINSt7__cxx1112basic_stringIcSt11char_traitsIcESaIcEEES5_St4lessIS5_ESaISt4pairIKS5_S5_EEEC2EOSC_.exit

19:                                               ; preds = %2
  %20 = getelementptr inbounds nuw i8, ptr %3, i64 16
  store ptr null, ptr %20, align 8, !tbaa !42
  br label %_ZNSt3mapINSt7__cxx1112basic_stringIcSt11char_traitsIcESaIcEEES5_St4lessIS5_ESaISt4pairIKS5_S5_EEEC2EOSC_.exit

_ZNSt3mapINSt7__cxx1112basic_stringIcSt11char_traitsIcESaIcEEES5_St4lessIS5_ESaISt4pairIKS5_S5_EEEC2EOSC_.exit: ; preds = %8, %19
  %.sink3 = phi ptr [ %5, %19 ], [ %13, %8 ]
  %.sink2 = phi ptr [ %5, %19 ], [ %15, %8 ]
  %.sink = phi i64 [ 0, %19 ], [ %18, %8 ]
  %.sink.i.i.i.i = phi i32 [ 0, %19 ], [ %10, %8 ]
  %21 = getelementptr inbounds nuw i8, ptr %3, i64 24
  store ptr %.sink3, ptr %21, align 8, !tbaa !48
  %22 = getelementptr inbounds nuw i8, ptr %3, i64 32
  store ptr %.sink2, ptr %22, align 8, !tbaa !49
  %23 = getelementptr inbounds nuw i8, ptr %3, i64 40
  store i64 %.sink, ptr %23, align 8, !tbaa !51
  store i32 %.sink.i.i.i.i, ptr %5, align 8, !tbaa !47
  %24 = invoke noundef nonnull align 8 dereferenceable(768) ptr @_ZN2cv4gapi2ov6ParamsINS0_7GenericEE20cfgOutputModelLayoutESt3mapINSt7__cxx1112basic_stringIcSt11char_traitsIcESaIcEEESB_St4lessISB_ESaISt4pairIKSB_SB_EEE(ptr noundef nonnull align 8 dereferenceable(768) %4, ptr noundef nonnull %3)
          to label %25 unwind label %31

25:                                               ; preds = %_ZNSt3mapINSt7__cxx1112basic_stringIcSt11char_traitsIcESaIcEEES5_St4lessIS5_ESaISt4pairIKS5_S5_EEEC2EOSC_.exit
  %26 = getelementptr inbounds nuw i8, ptr %3, i64 16
  %27 = load ptr, ptr %26, align 8, !tbaa !42
  invoke void @_ZNSt8_Rb_treeINSt7__cxx1112basic_stringIcSt11char_traitsIcESaIcEEESt4pairIKS5_S5_ESt10_Select1stIS8_ESt4lessIS5_ESaIS8_EE8_M_eraseEPSt13_Rb_tree_nodeIS8_E(ptr noundef nonnull align 8 dereferenceable(48) %3, ptr noundef %27)
          to label %_ZNSt3mapINSt7__cxx1112basic_stringIcSt11char_traitsIcESaIcEEES5_St4lessIS5_ESaISt4pairIKS5_S5_EEED2Ev.exit unwind label %28

28:                                               ; preds = %25
  %29 = landingpad { ptr, i32 }
          catch ptr null
  %30 = extractvalue { ptr, i32 } %29, 0
  call void @__clang_call_terminate(ptr %30) #24
  unreachable

_ZNSt3mapINSt7__cxx1112basic_stringIcSt11char_traitsIcESaIcEEES5_St4lessIS5_ESaISt4pairIKS5_S5_EEED2Ev.exit: ; preds = %25
  ret ptr %0

31:                                               ; preds = %_ZNSt3mapINSt7__cxx1112basic_stringIcSt11char_traitsIcESaIcEEES5_St4lessIS5_ESaISt4pairIKS5_S5_EEEC2EOSC_.exit
  %32 = landingpad { ptr, i32 }
          cleanup
  call void @_ZNSt3mapINSt7__cxx1112basic_stringIcSt11char_traitsIcESaIcEEES5_St4lessIS5_ESaISt4pairIKS5_S5_EEED2Ev(ptr noundef nonnull align 8 dereferenceable(48) %3) #23
  resume { ptr, i32 } %32
}